target datalayout = "e-m:e-p270:32:32-p271:32:32-p272:64:64-i64:64-i128:128-f80:128-n8:16:32:64-S128"
target triple = "x86_64-pc-linux-gnu"

%struct.mbedtls_ecp_group = type { i32, %struct.mbedtls_mpi, %struct.mbedtls_mpi, %struct.mbedtls_mpi, %struct.mbedtls_ecp_point, %struct.mbedtls_mpi, i64, i64, i32, ptr, ptr, ptr, ptr, ptr, i64 }
%struct.mbedtls_ecp_point = type { %struct.mbedtls_mpi, %struct.mbedtls_mpi, %struct.mbedtls_mpi }
%struct.mbedtls_mpi = type { ptr, i16, i16 }
%struct.mbedtls_ecp_keypair = type { %struct.mbedtls_ecp_group, %struct.mbedtls_mpi, %struct.mbedtls_ecp_point }

; Function Attrs: nounwind uwtable
define hidden i32 @mbedtls_ecp_get_type(ptr noundef %0) #0 {
  %2 = alloca i32, align 4
  %3 = alloca ptr, align 8
  store ptr %0, ptr %3, align 8, !tbaa !25
  %4 = load ptr, ptr %3, align 8, !tbaa !25
  %5 = getelementptr inbounds nuw %struct.mbedtls_ecp_group, ptr %4, i32 0, i32 4
  %6 = getelementptr inbounds nuw %struct.mbedtls_ecp_point, ptr %5, i32 0, i32 0
  %7 = getelementptr inbounds nuw %struct.mbedtls_mpi, ptr %6, i32 0, i32 0
  %8 = load ptr, ptr %7, align 8, !tbaa !27
  %9 = icmp eq ptr %8, null
  br i1 %9, label %10, label %11

10:                                               ; preds = %1
  store i32 0, ptr %2, align 4
  br label %20

11:                                               ; preds = %1
  %12 = load ptr, ptr %3, align 8, !tbaa !25
  %13 = getelementptr inbounds nuw %struct.mbedtls_ecp_group, ptr %12, i32 0, i32 4
  %14 = getelementptr inbounds nuw %struct.mbedtls_ecp_point, ptr %13, i32 0, i32 1
  %15 = getelementptr inbounds nuw %struct.mbedtls_mpi, ptr %14, i32 0, i32 0
  %16 = load ptr, ptr %15, align 8, !tbaa !33
  %17 = icmp eq ptr %16, null
  br i1 %17, label %18, label %19

18:                                               ; preds = %11
  store i32 2, ptr %2, align 4
  br label %20

19:                                               ; preds = %11
  store i32 1, ptr %2, align 4
  br label %20

20:                                               ; preds = %19, %18, %10
  %21 = load i32, ptr %2, align 4
  ret i32 %21
}

; Function Attrs: nounwind uwtable
define hidden i32 @mbedtls_ecp_write_key(ptr noundef %0, ptr noundef %1, i64 noundef %2) #0 {
  %4 = alloca i32, align 4
  %5 = alloca ptr, align 8
  %6 = alloca ptr, align 8
  %7 = alloca i64, align 8
  %8 = alloca i32, align 4
  %9 = alloca i32, align 4
  store ptr %0, ptr %5, align 8, !tbaa !45
  store ptr %1, ptr %6, align 8, !tbaa !22
  store i64 %2, ptr %7, align 8, !tbaa !7
  call void @llvm.lifetime.start.p0(i64 4, ptr %8) #11
  store i32 -110, ptr %8, align 4, !tbaa !3
  %10 = load ptr, ptr %5, align 8, !tbaa !45
  %11 = getelementptr inbounds nuw %struct.mbedtls_ecp_keypair, ptr %10, i32 0, i32 0
  %12 = call i32 @mbedtls_ecp_get_type(ptr noundef %11)
  %13 = icmp eq i32 %12, 2
  br i1 %13, label %14, label %49

14:                                               ; preds = %3
  %15 = load ptr, ptr %5, align 8, !tbaa !45
  %16 = getelementptr inbounds nuw %struct.mbedtls_ecp_keypair, ptr %15, i32 0, i32 0
  %17 = getelementptr inbounds nuw %struct.mbedtls_ecp_group, ptr %16, i32 0, i32 0
  %18 = load i32, ptr %17, align 8, !tbaa !59
  %19 = icmp eq i32 %18, 9
  br i1 %19, label %20, label %25

20:                                               ; preds = %14
  %21 = load i64, ptr %7, align 8, !tbaa !7
  %22 = icmp ult i64 %21, 32
  br i1 %22, label %23, label %24

23:                                               ; preds = %20
  store i32 -20224, ptr %4, align 4
  store i32 1, ptr %9, align 4
  br label %69

24:                                               ; preds = %20
  br label %37

25:                                               ; preds = %14
  %26 = load ptr, ptr %5, align 8, !tbaa !45
  %27 = getelementptr inbounds nuw %struct.mbedtls_ecp_keypair, ptr %26, i32 0, i32 0
  %28 = getelementptr inbounds nuw %struct.mbedtls_ecp_group, ptr %27, i32 0, i32 0
  %29 = load i32, ptr %28, align 8, !tbaa !59
  %30 = icmp eq i32 %29, 13
  br i1 %30, label %31, label %36

31:                                               ; preds = %25
  %32 = load i64, ptr %7, align 8, !tbaa !7
  %33 = icmp ult i64 %32, 56
  br i1 %33, label %34, label %35

34:                                               ; preds = %31
  store i32 -20224, ptr %4, align 4
  store i32 1, ptr %9, align 4
  br label %69

35:                                               ; preds = %31
  br label %36

36:                                               ; preds = %35, %25
  br label %37

37:                                               ; preds = %36, %24
  br label %38

38:                                               ; preds = %37
  %39 = load ptr, ptr %5, align 8, !tbaa !45
  %40 = getelementptr inbounds nuw %struct.mbedtls_ecp_keypair, ptr %39, i32 0, i32 1
  %41 = load ptr, ptr %6, align 8, !tbaa !22
  %42 = load i64, ptr %7, align 8, !tbaa !7
  %43 = call i32 @mbedtls_mpi_write_binary_le(ptr noundef %40, ptr noundef %41, i64 noundef %42)
  store i32 %43, ptr %8, align 4, !tbaa !3
  %44 = icmp ne i32 %43, 0
  br i1 %44, label %45, label %46

45:                                               ; preds = %38
  br label %67

46:                                               ; preds = %38
  br label %47

47:                                               ; preds = %46
  br label %48

48:                                               ; preds = %47
  br label %49

49:                                               ; preds = %48, %3
  %50 = load ptr, ptr %5, align 8, !tbaa !45
  %51 = getelementptr inbounds nuw %struct.mbedtls_ecp_keypair, ptr %50, i32 0, i32 0
  %52 = call i32 @mbedtls_ecp_get_type(ptr noundef %51)
  %53 = icmp eq i32 %52, 1
  br i1 %53, label %54, label %66

54:                                               ; preds = %49
  br label %55

55:                                               ; preds = %54
  %56 = load ptr, ptr %5, align 8, !tbaa !45
  %57 = getelementptr inbounds nuw %struct.mbedtls_ecp_keypair, ptr %56, i32 0, i32 1
  %58 = load ptr, ptr %6, align 8, !tbaa !22
  %59 = load i64, ptr %7, align 8, !tbaa !7
  %60 = call i32 @mbedtls_mpi_write_binary(ptr noundef %57, ptr noundef %58, i64 noundef %59)
  store i32 %60, ptr %8, align 4, !tbaa !3
  %61 = icmp ne i32 %60, 0
  br i1 %61, label %62, label %63

62:                                               ; preds = %55
  br label %67

63:                                               ; preds = %55
  br label %64

64:                                               ; preds = %63
  br label %65

65:                                               ; preds = %64
  br label %66

66:                                               ; preds = %65, %49
  br label %67

67:                                               ; preds = %66, %62, %45
  %68 = load i32, ptr %8, align 4, !tbaa !3
  store i32 %68, ptr %4, align 4
  store i32 1, ptr %9, align 4
  br label %69

69:                                               ; preds = %67, %34, %23
  call void @llvm.lifetime.end.p0(i64 4, ptr %8) #11
  %70 = load i32, ptr %4, align 4
  ret i32 %70
}