; Function Attrs: nounwind uwtable
define hidden i32 @mbedtls_ecp_write_key(ptr noundef %0, ptr noundef %1, i64 noundef %2) local_unnamed_addr #7 {
  %4 = getelementptr inbounds nuw i8, ptr %0, i64 56
  %5 = load ptr, ptr %4, align 8, !tbaa !19
  %6 = icmp eq ptr %5, null
  br i1 %6, label %mbedtls_ecp_get_type.exit20.thread, label %7

7:                                                ; preds = %3
  %8 = getelementptr inbounds nuw i8, ptr %0, i64 72
  %9 = load ptr, ptr %8, align 8, !tbaa !26
  %10 = icmp eq ptr %9, null
  br i1 %10, label %mbedtls_ecp_get_type.exit, label %mbedtls_ecp_get_type.exit20

mbedtls_ecp_get_type.exit:                        ; preds = %7
  %11 = load i32, ptr %0, align 8, !tbaa !56
  %12 = icmp eq i32 %11, 9
  br i1 %12, label %13, label %15

13:                                               ; preds = %mbedtls_ecp_get_type.exit
  %14 = icmp ult i64 %2, 32
  br i1 %14, label %mbedtls_ecp_get_type.exit20.thread, label %18

15:                                               ; preds = %mbedtls_ecp_get_type.exit
  %16 = icmp eq i32 %11, 13
  %17 = icmp ult i64 %2, 56
  %or.cond = and i1 %17, %16
  br i1 %or.cond, label %mbedtls_ecp_get_type.exit20.thread, label %18

18:                                               ; preds = %13, %15
  %19 = getelementptr inbounds nuw i8, ptr %0, i64 192
  %20 = tail call i32 @mbedtls_mpi_write_binary_le(ptr noundef nonnull %19, ptr noundef %1, i64 noundef %2) #21
  %.not = icmp eq i32 %20, 0
  br i1 %.not, label %mbedtls_ecp_get_type.exit.thread, label %mbedtls_ecp_get_type.exit20.thread

mbedtls_ecp_get_type.exit.thread:                 ; preds = %18
  %.pr.pre = load ptr, ptr %4, align 8, !tbaa !19
  %21 = icmp eq ptr %.pr.pre, null
  br i1 %21, label %mbedtls_ecp_get_type.exit20.thread, label %22

22:                                               ; preds = %mbedtls_ecp_get_type.exit.thread
  %.pr = load ptr, ptr %8, align 8, !tbaa !26
  %23 = icmp eq ptr %.pr, null
  br i1 %23, label %mbedtls_ecp_get_type.exit20.thread, label %mbedtls_ecp_get_type.exit20

mbedtls_ecp_get_type.exit20:                      ; preds = %7, %22
  %24 = getelementptr inbounds nuw i8, ptr %0, i64 192
  %25 = tail call i32 @mbedtls_mpi_write_binary(ptr noundef nonnull %24, ptr noundef %1, i64 noundef %2) #21
  br label %mbedtls_ecp_get_type.exit20.thread

mbedtls_ecp_get_type.exit20.thread:               ; preds = %3, %22, %mbedtls_ecp_get_type.exit.thread, %18, %mbedtls_ecp_get_type.exit20, %15, %13
  %.014 = phi i32 [ -20224, %13 ], [ -20224, %15 ], [ %20, %18 ], [ %25, %mbedtls_ecp_get_type.exit20 ], [ 0, %mbedtls_ecp_get_type.exit.thread ], [ 0, %22 ], [ -110, %3 ]
  ret i32 %.014
}